; Function Attrs: nounwind uwtable
define internal void @_StartLOs(ptr noundef %0, ptr noundef readonly captures(none) %1) #0 {
  %3 = getelementptr inbounds nuw i8, ptr %0, i64 592
  %4 = load ptr, ptr %3, align 8
  %5 = getelementptr inbounds nuw i8, ptr %1, i64 152
  %6 = load ptr, ptr %5, align 8
  %7 = getelementptr i8, ptr %0, i64 488
  %.val = load ptr, ptr %7, align 8
  %8 = tail call i64 @ftello(ptr noundef %.val)
  %9 = icmp slt i64 %8, 0
  br i1 %9, label %10, label %15

10:                                               ; preds = %2
  %11 = getelementptr inbounds nuw i8, ptr %4, i64 8
  %12 = load i32, ptr %11, align 8
  %.not.i = icmp eq i32 %12, 0
  br i1 %.not.i, label %_getFilePos.exit, label %13

13:                                               ; preds = %10
  tail call void (i32, i32, ptr, ...) @pg_log_generic(i32 noundef 4, i32 noundef 0, ptr noundef nonnull @.str.19) #7
  tail call void @exit_nicely(i32 noundef 1) #8
  unreachable

_getFilePos.exit:                                 ; preds = %10
  %14 = getelementptr inbounds nuw i8, ptr %6, i64 8
  store i64 %8, ptr %14, align 8
  br label %17

15:                                               ; preds = %2
  %16 = getelementptr inbounds nuw i8, ptr %6, i64 8
  store i64 %8, ptr %16, align 8
  store i32 2, ptr %6, align 8
  br label %17

17:                                               ; preds = %_getFilePos.exit, %15
  %18 = load ptr, ptr %7, align 8
  %19 = tail call i32 @fputc(i32 noundef 3, ptr noundef %18)
  %20 = icmp eq i32 %19, -1
  br i1 %20, label %21, label %_WriteByte.exit

21:                                               ; preds = %17
  tail call void (i32, i32, ptr, ...) @pg_log_generic(i32 noundef 4, i32 noundef 0, ptr noundef nonnull @.str.18) #7
  tail call void @exit_nicely(i32 noundef 1) #8
  unreachable

_WriteByte.exit:                                  ; preds = %17
  %22 = getelementptr inbounds nuw i8, ptr %1, i64 24
  %23 = load i32, ptr %22, align 8
  %24 = tail call i64 @WriteInt(ptr noundef nonnull %0, i32 noundef %23) #7
  ret void
}